; Function Attrs: nounwind uwtable
define internal ptr @gc_get_count(ptr readnone captures(none) %0, ptr readnone captures(none) %1) #0 {
  %3 = tail call align 8 ptr @llvm.threadlocal.address.p0(ptr align 8 @_Py_tss_tstate)
  %4 = load ptr, ptr %3, align 8, !tbaa !4
  %5 = getelementptr inbounds nuw i8, ptr %4, i64 16
  %6 = load ptr, ptr %5, align 8, !tbaa !9
  %7 = getelementptr inbounds nuw i8, ptr %6, i64 7444
  %8 = load i32, ptr %7, align 4, !tbaa !25
  %9 = getelementptr inbounds nuw i8, ptr %6, i64 7448
  %10 = getelementptr inbounds nuw i8, ptr %6, i64 7632
  %11 = load i32, ptr %10, align 8, !tbaa !26
  %12 = sext i32 %11 to i64
  %.idx.i = mul nsw i64 %12, 24
  %13 = getelementptr i8, ptr %9, i64 %.idx.i
  %14 = getelementptr i8, ptr %13, i64 20
  %15 = load i32, ptr %14, align 4, !tbaa !27
  %16 = xor i32 %11, 1
  %17 = sext i32 %16 to i64
  %.idx5.i = mul nsw i64 %17, 24
  %18 = getelementptr i8, ptr %9, i64 %.idx5.i
  %19 = getelementptr i8, ptr %18, i64 20
  %20 = load i32, ptr %19, align 4, !tbaa !27
  %21 = tail call ptr (ptr, ...) @Py_BuildValue(ptr noundef nonnull @.str.20, i32 noundef %8, i32 noundef %15, i32 noundef %20) #5
  ret ptr %21
}